target datalayout = "e-m:e-p270:32:32-p271:32:32-p272:64:64-i64:64-i128:128-f80:128-n8:16:32:64-S128"
target triple = "x86_64-pc-linux-gnu"

%"class.clang::QualType" = type { %"class.llvm::PointerIntPair" }
%"class.llvm::PointerIntPair" = type { %"struct.llvm::detail::PunnedPointer" }
%"struct.llvm::detail::PunnedPointer" = type { [8 x i8] }
%"class.clang::ActionResult" = type { i64 }
%"class.clang::ExtQualsTypeCommonBase" = type { ptr, %"class.clang::QualType" }
%union.anon.1035 = type { %"class.clang::Type::FunctionTypeBitfields" }
%"class.clang::Type::FunctionTypeBitfields" = type { i64 }
%"class.clang::Expr" = type { %"class.clang::ValueStmt", %"class.clang::QualType" }
%"class.clang::ValueStmt" = type { %"class.clang::Stmt" }
%"class.clang::Stmt" = type { %union.anon.1031 }
%union.anon.1031 = type { %"class.clang::Stmt::PseudoObjectExprBitfields" }
%"class.clang::Stmt::PseudoObjectExprBitfields" = type { i64 }
%"class.clang::Type" = type { %"class.clang::ExtQualsTypeCommonBase", %union.anon.1035, [8 x i8] }

; Function Attrs: mustprogress nounwind uwtable
define linkonce_odr hidden noundef i32 @_ZNK5clang4Type12getTypeClassEv(ptr noundef nonnull align 16 dereferenceable(24) %0) #0 comdat align 2 {
  %2 = alloca ptr, align 8
  store ptr %0, ptr %2, align 8
  %3 = load ptr, ptr %2, align 8
  %4 = getelementptr inbounds nuw %"class.clang::Type", ptr %3, i32 0, i32 1
  %5 = load i8, ptr %4, align 16
  %6 = zext i8 %5 to i32
  ret i32 %6
}

; Function Attrs: mustprogress nounwind uwtable
define linkonce_odr hidden noundef zeroext i1 @_ZN5clang12FunctionType7classofEPKNS_4TypeE(ptr noundef %0) #0 comdat align 2 {
  %2 = alloca ptr, align 8
  store ptr %0, ptr %2, align 8
  %3 = load ptr, ptr %2, align 8
  %4 = call noundef i32 @_ZNK5clang4Type12getTypeClassEv(ptr noundef nonnull align 16 dereferenceable(24) %3)
  %5 = icmp eq i32 %4, 25
  br i1 %5, label %10, label %6

6:                                                ; preds = %1
  %7 = load ptr, ptr %2, align 8
  %8 = call noundef i32 @_ZNK5clang4Type12getTypeClassEv(ptr noundef nonnull align 16 dereferenceable(24) %7)
  %9 = icmp eq i32 %8, 26
  br label %10

10:                                               ; preds = %6, %1
  %11 = phi i1 [ true, %1 ], [ %9, %6 ]
  ret i1 %11
}

; Function Attrs: mustprogress nounwind uwtable
define linkonce_odr hidden noundef zeroext i1 @_ZN4llvm8isa_implIN5clang12FunctionTypeENS1_4TypeEvE4doitERKS3_(ptr noundef nonnull align 16 dereferenceable(24) %0) #0 comdat align 2 {
  %2 = alloca ptr, align 8
  store ptr %0, ptr %2, align 8
  %3 = load ptr, ptr %2, align 8
  %4 = call noundef zeroext i1 @_ZN5clang12FunctionType7classofEPKNS_4TypeE(ptr noundef %3)
  ret i1 %4
}

; Function Attrs: mustprogress nounwind uwtable
define linkonce_odr hidden noundef zeroext i1 @_ZN4llvm11isa_impl_clIN5clang12FunctionTypeEPKNS1_4TypeEE4doitES5_(ptr noundef %0) #0 comdat align 2 {
  %2 = alloca ptr, align 8
  store ptr %0, ptr %2, align 8
  %3 = load ptr, ptr %2, align 8
  %4 = call noundef zeroext i1 @_ZN4llvm8isa_implIN5clang12FunctionTypeENS1_4TypeEvE4doitERKS3_(ptr noundef nonnull align 16 dereferenceable(24) %3)
  ret i1 %4
}

; Function Attrs: mustprogress nounwind uwtable
define linkonce_odr hidden noundef nonnull align 8 dereferenceable(8) ptr @_ZN4llvm13simplify_typeIPKN5clang4TypeEE18getSimplifiedValueERS4_(ptr noundef nonnull align 8 dereferenceable(8) %0) #0 comdat align 2 {
  %2 = alloca ptr, align 8
  store ptr %0, ptr %2, align 8
  %3 = load ptr, ptr %2, align 8
  ret ptr %3
}

; Function Attrs: mustprogress nounwind uwtable
define linkonce_odr hidden noundef zeroext i1 @_ZN4llvm13isa_impl_wrapIN5clang12FunctionTypeEPKNS1_4TypeES5_E4doitERKS5_(ptr noundef nonnull align 8 dereferenceable(8) %0) #0 comdat align 2 {
  %2 = alloca ptr, align 8
  store ptr %0, ptr %2, align 8
  %3 = load ptr, ptr %2, align 8
  %4 = load ptr, ptr %3, align 8
  %5 = call noundef zeroext i1 @_ZN4llvm11isa_impl_clIN5clang12FunctionTypeEPKNS1_4TypeEE4doitES5_(ptr noundef %4)
  ret i1 %5
}

; Function Attrs: mustprogress nounwind uwtable
define linkonce_odr hidden noundef ptr @_ZN4llvm13simplify_typeIKPKN5clang4TypeEE18getSimplifiedValueERS5_(ptr noundef nonnull align 8 dereferenceable(8) %0) #0 comdat align 2 {
  %2 = alloca ptr, align 8
  store ptr %0, ptr %2, align 8
  %3 = load ptr, ptr %2, align 8
  %4 = call noundef nonnull align 8 dereferenceable(8) ptr @_ZN4llvm13simplify_typeIPKN5clang4TypeEE18getSimplifiedValueERS4_(ptr noundef nonnull align 8 dereferenceable(8) %3)
  %5 = load ptr, ptr %4, align 8
  ret ptr %5
}

; Function Attrs: mustprogress nounwind uwtable
define linkonce_odr hidden noundef zeroext i1 @_ZN4llvm13isa_impl_wrapIN5clang12FunctionTypeEKPKNS1_4TypeES5_E4doitERS6_(ptr noundef nonnull align 8 dereferenceable(8) %0) #0 comdat align 2 {
  %2 = alloca ptr, align 8
  %3 = alloca ptr, align 8
  store ptr %0, ptr %2, align 8
  %4 = load ptr, ptr %2, align 8
  %5 = call noundef ptr @_ZN4llvm13simplify_typeIKPKN5clang4TypeEE18getSimplifiedValueERS5_(ptr noundef nonnull align 8 dereferenceable(8) %4)
  store ptr %5, ptr %3, align 8
  %6 = call noundef zeroext i1 @_ZN4llvm13isa_impl_wrapIN5clang12FunctionTypeEPKNS1_4TypeES5_E4doitERKS5_(ptr noundef nonnull align 8 dereferenceable(8) %3)
  ret i1 %6
}

; Function Attrs: mustprogress nounwind uwtable
define linkonce_odr hidden noundef ptr @_ZN4llvm13simplify_typeIN5clang8QualTypeEE18getSimplifiedValueES2_(i64 %0) #0 comdat align 2 {
  %2 = alloca %"class.clang::QualType", align 8
  %3 = getelementptr inbounds nuw %"class.clang::QualType", ptr %2, i32 0, i32 0
  %4 = getelementptr inbounds nuw %"class.llvm::PointerIntPair", ptr %3, i32 0, i32 0
  %5 = getelementptr inbounds nuw %"struct.llvm::detail::PunnedPointer", ptr %4, i32 0, i32 0
  store i64 %0, ptr %5, align 8
  %6 = call noundef ptr @_ZNK5clang8QualType10getTypePtrEv(ptr noundef nonnull align 8 dereferenceable(8) %2)
  ret ptr %6
}

; Function Attrs: mustprogress nounwind uwtable
define linkonce_odr hidden noundef i64 @_ZNK4llvm6detail13PunnedPointerINS_12PointerUnionIJPKN5clang4TypeEPKNS3_8ExtQualsEEEEE5asIntEv(ptr noundef nonnull align 8 dereferenceable(8) %0) #0 comdat align 2 {
  %2 = alloca ptr, align 8
  %3 = alloca i64, align 8
  store ptr %0, ptr %2, align 8
  %4 = load ptr, ptr %2, align 8
  store i64 0, ptr %3, align 8
  %5 = getelementptr inbounds nuw %"struct.llvm::detail::PunnedPointer", ptr %4, i32 0, i32 0
  %6 = getelementptr inbounds [8 x i8], ptr %5, i64 0, i64 0
  call void @llvm.memcpy.p0.p0.i64(ptr align 8 %3, ptr align 8 %6, i64 8, i1 false)
  %7 = load i64, ptr %3, align 8
  ret i64 %7
}

; Function Attrs: mustprogress nounwind uwtable
define linkonce_odr hidden noundef zeroext i1 @_ZN4llvm14CastIsPossibleIN5clang12FunctionTypeEPKNS1_4TypeEvE10isPossibleERKS5_(ptr noundef nonnull align 8 dereferenceable(8) %0) #0 comdat align 2 {
  %2 = alloca ptr, align 8
  store ptr %0, ptr %2, align 8
  %3 = load ptr, ptr %2, align 8
  %4 = call noundef zeroext i1 @_ZN4llvm13isa_impl_wrapIN5clang12FunctionTypeEKPKNS1_4TypeES5_E4doitERS6_(ptr noundef nonnull align 8 dereferenceable(8) %3)
  ret i1 %4
}

; Function Attrs: mustprogress nounwind uwtable
define linkonce_odr hidden noundef ptr @_ZN4llvm13simplify_typeIKN5clang8QualTypeEE18getSimplifiedValueERS3_(ptr noundef nonnull align 8 dereferenceable(8) %0) #0 comdat align 2 {
  %2 = alloca ptr, align 8
  %3 = alloca %"class.clang::QualType", align 8
  store ptr %0, ptr %2, align 8
  %4 = load ptr, ptr %2, align 8
  call void @llvm.memcpy.p0.p0.i64(ptr align 8 %3, ptr align 8 %4, i64 8, i1 false)
  %5 = getelementptr inbounds nuw %"class.clang::QualType", ptr %3, i32 0, i32 0
  %6 = getelementptr inbounds nuw %"class.llvm::PointerIntPair", ptr %5, i32 0, i32 0
  %7 = getelementptr inbounds nuw %"struct.llvm::detail::PunnedPointer", ptr %6, i32 0, i32 0
  %8 = load i64, ptr %7, align 8
  %9 = call noundef ptr @_ZN4llvm13simplify_typeIN5clang8QualTypeEE18getSimplifiedValueES2_(i64 %8)
  ret ptr %9
}

; Function Attrs: mustprogress nounwind uwtable
define linkonce_odr hidden noundef ptr @_ZNK4llvm14PointerIntPairINS_12PointerUnionIJPKN5clang4TypeEPKNS2_8ExtQualsEEEELj3EjNS_21PointerLikeTypeTraitsIS9_EENS_18PointerIntPairInfoIS9_Lj3ESB_EEE14getOpaqueValueEv(ptr noundef nonnull align 8 dereferenceable(8) %0) #0 comdat align 2 {
  %2 = alloca ptr, align 8
  store ptr %0, ptr %2, align 8
  %3 = load ptr, ptr %2, align 8
  %4 = getelementptr inbounds nuw %"class.llvm::PointerIntPair", ptr %3, i32 0, i32 0
  %5 = call noundef i64 @_ZNK4llvm6detail13PunnedPointerINS_12PointerUnionIJPKN5clang4TypeEPKNS3_8ExtQualsEEEEE5asIntEv(ptr noundef nonnull align 8 dereferenceable(8) %4)
  %6 = inttoptr i64 %5 to ptr
  ret ptr %6
}

; Function Attrs: mustprogress nounwind uwtable
define linkonce_odr hidden noundef zeroext i1 @_ZN4llvm8CastInfoIN5clang12FunctionTypeEKNS1_8QualTypeEvE10isPossibleERS4_(ptr noundef nonnull align 8 dereferenceable(8) %0) #0 comdat align 2 {
  %2 = alloca ptr, align 8
  %3 = alloca ptr, align 8
  store ptr %0, ptr %2, align 8
  %4 = load ptr, ptr %2, align 8
  %5 = call noundef ptr @_ZN4llvm13simplify_typeIKN5clang8QualTypeEE18getSimplifiedValueERS3_(ptr noundef nonnull align 8 dereferenceable(8) %4)
  store ptr %5, ptr %3, align 8
  %6 = call noundef zeroext i1 @_ZN4llvm14CastIsPossibleIN5clang12FunctionTypeEPKNS1_4TypeEvE10isPossibleERKS5_(ptr noundef nonnull align 8 dereferenceable(8) %3)
  ret i1 %6
}

; Function Attrs: mustprogress nounwind uwtable
define linkonce_odr hidden noundef ptr @_ZNK5clang8QualType12getCommonPtrEv(ptr noundef nonnull align 8 dereferenceable(8) %0) #0 comdat align 2 {
  %2 = alloca ptr, align 8
  %3 = alloca i64, align 8
  store ptr %0, ptr %2, align 8
  %4 = load ptr, ptr %2, align 8
  %5 = getelementptr inbounds nuw %"class.clang::QualType", ptr %4, i32 0, i32 0
  %6 = call noundef ptr @_ZNK4llvm14PointerIntPairINS_12PointerUnionIJPKN5clang4TypeEPKNS2_8ExtQualsEEEELj3EjNS_21PointerLikeTypeTraitsIS9_EENS_18PointerIntPairInfoIS9_Lj3ESB_EEE14getOpaqueValueEv(ptr noundef nonnull align 8 dereferenceable(8) %5)
  %7 = ptrtoint ptr %6 to i64
  store i64 %7, ptr %3, align 8
  %8 = load i64, ptr %3, align 8
  %9 = and i64 %8, -16
  store i64 %9, ptr %3, align 8
  %10 = load i64, ptr %3, align 8
  %11 = inttoptr i64 %10 to ptr
  ret ptr %11
}

; Function Attrs: mustprogress nounwind uwtable
define linkonce_odr hidden noundef zeroext i1 @_ZN4llvm3isaIN5clang12FunctionTypeENS1_8QualTypeEEEbRKT0_(ptr noundef nonnull align 8 dereferenceable(8) %0) #0 comdat {
  %2 = alloca ptr, align 8
  store ptr %0, ptr %2, align 8
  %3 = load ptr, ptr %2, align 8
  %4 = call noundef zeroext i1 @_ZN4llvm8CastInfoIN5clang12FunctionTypeEKNS1_8QualTypeEvE10isPossibleERS4_(ptr noundef nonnull align 8 dereferenceable(8) %3)
  ret i1 %4
}

; Function Attrs: mustprogress nounwind uwtable
define linkonce_odr hidden noundef ptr @_ZNK5clang8QualType10getTypePtrEv(ptr noundef nonnull align 8 dereferenceable(8) %0) #0 comdat align 2 {
  %2 = alloca ptr, align 8
  store ptr %0, ptr %2, align 8
  %3 = load ptr, ptr %2, align 8
  %4 = call noundef ptr @_ZNK5clang8QualType12getCommonPtrEv(ptr noundef nonnull align 8 dereferenceable(8) %3)
  %5 = getelementptr inbounds nuw %"class.clang::ExtQualsTypeCommonBase", ptr %4, i32 0, i32 0
  %6 = load ptr, ptr %5, align 8
  ret ptr %6
}

; Function Attrs: mustprogress nounwind uwtable
define linkonce_odr hidden noundef zeroext i1 @_ZNK5clang4Type14isFunctionTypeEv(ptr noundef nonnull align 16 dereferenceable(24) %0) #0 comdat align 2 {
  %2 = alloca ptr, align 8
  store ptr %0, ptr %2, align 8
  %3 = load ptr, ptr %2, align 8
  %4 = getelementptr inbounds nuw %"class.clang::ExtQualsTypeCommonBase", ptr %3, i32 0, i32 1
  %5 = call noundef zeroext i1 @_ZN4llvm3isaIN5clang12FunctionTypeENS1_8QualTypeEEEbRKT0_(ptr noundef nonnull align 8 dereferenceable(8) %4)
  ret i1 %5
}

; Function Attrs: mustprogress nounwind uwtable
define linkonce_odr hidden noundef ptr @_ZNK5clang8QualTypeptEv(ptr noundef nonnull align 8 dereferenceable(8) %0) #0 comdat align 2 {
  %2 = alloca ptr, align 8
  store ptr %0, ptr %2, align 8
  %3 = load ptr, ptr %2, align 8
  %4 = call noundef ptr @_ZNK5clang8QualType10getTypePtrEv(ptr noundef nonnull align 8 dereferenceable(8) %3)
  ret ptr %4
}

; Function Attrs: mustprogress nounwind uwtable
define linkonce_odr hidden i64 @_ZNK5clang4Expr7getTypeEv(ptr noundef nonnull align 8 dereferenceable(16) %0) #0 comdat align 2 {
  %2 = alloca %"class.clang::QualType", align 8
  %3 = alloca ptr, align 8
  store ptr %0, ptr %3, align 8
  %4 = load ptr, ptr %3, align 8
  %5 = getelementptr inbounds nuw %"class.clang::Expr", ptr %4, i32 0, i32 1
  call void @llvm.memcpy.p0.p0.i64(ptr align 8 %2, ptr align 8 %5, i64 8, i1 false)
  %6 = getelementptr inbounds nuw %"class.clang::QualType", ptr %2, i32 0, i32 0
  %7 = getelementptr inbounds nuw %"class.llvm::PointerIntPair", ptr %6, i32 0, i32 0
  %8 = getelementptr inbounds nuw %"struct.llvm::detail::PunnedPointer", ptr %7, i32 0, i32 0
  %9 = load i64, ptr %8, align 8
  ret i64 %9
}

; Function Attrs: mustprogress nounwind uwtable
define dso_local i64 @_ZN5clang4Sema31PerformMemberExprBaseConversionEPNS_4ExprEb(ptr noundef nonnull align 8 dereferenceable(17560) %0, ptr noundef %1, i1 noundef zeroext %2) #0 align 2 {
  %4 = alloca %"class.clang::ActionResult", align 8
  %5 = alloca ptr, align 8
  %6 = alloca ptr, align 8
  %7 = alloca i8, align 1
  %8 = alloca %"class.clang::QualType", align 8
  store ptr %0, ptr %5, align 8
  store ptr %1, ptr %6, align 8
  %9 = zext i1 %2 to i8
  store i8 %9, ptr %7, align 1
  %10 = load ptr, ptr %5, align 8
  %11 = load i8, ptr %7, align 1
  %12 = trunc i8 %11 to i1
  br i1 %12, label %13, label %22

13:                                               ; preds = %3
  %14 = load ptr, ptr %6, align 8
  %15 = call i64 @_ZNK5clang4Expr7getTypeEv(ptr noundef nonnull align 8 dereferenceable(16) %14)
  %16 = getelementptr inbounds nuw %"class.clang::QualType", ptr %8, i32 0, i32 0
  %17 = getelementptr inbounds nuw %"class.llvm::PointerIntPair", ptr %16, i32 0, i32 0
  %18 = getelementptr inbounds nuw %"struct.llvm::detail::PunnedPointer", ptr %17, i32 0, i32 0
  store i64 %15, ptr %18, align 8
  %19 = call noundef ptr @_ZNK5clang8QualTypeptEv(ptr noundef nonnull align 8 dereferenceable(8) %8)
  %20 = call noundef zeroext i1 @_ZNK5clang4Type14isFunctionTypeEv(ptr noundef nonnull align 16 dereferenceable(24) %19)
  %21 = xor i1 %20, true
  br label %22

22:                                               ; preds = %13, %3
  %23 = phi i1 [ false, %3 ], [ %21, %13 ]
  br i1 %23, label %24, label %28

24:                                               ; preds = %22
  %25 = load ptr, ptr %6, align 8
  %26 = call i64 @_ZN5clang4Sema36DefaultFunctionArrayLvalueConversionEPNS_4ExprEb(ptr noundef nonnull align 8 dereferenceable(17560) %10, ptr noundef %25, i1 noundef zeroext true)
  %27 = getelementptr inbounds nuw %"class.clang::ActionResult", ptr %4, i32 0, i32 0
  store i64 %26, ptr %27, align 8
  br label %32

28:                                               ; preds = %22
  %29 = load ptr, ptr %6, align 8
  %30 = call i64 @_ZN5clang4Sema20CheckPlaceholderExprEPNS_4ExprE(ptr noundef nonnull align 8 dereferenceable(17560) %10, ptr noundef %29)
  %31 = getelementptr inbounds nuw %"class.clang::ActionResult", ptr %4, i32 0, i32 0
  store i64 %30, ptr %31, align 8
  br label %32

32:                                               ; preds = %28, %24
  %33 = getelementptr inbounds nuw %"class.clang::ActionResult", ptr %4, i32 0, i32 0
  %34 = load i64, ptr %33, align 8
  ret i64 %34
}