; Function Attrs: mustprogress nounwind uwtable
define dso_local i64 @_ZN5clang4Sema31PerformMemberExprBaseConversionEPNS_4ExprEb(ptr noundef nonnull align 8 dereferenceable(17560) %0, ptr noundef %1, i1 noundef zeroext %2) local_unnamed_addr #0 align 2 {
  br i1 %2, label %4, label %.critedge

4:                                                ; preds = %3
  %5 = getelementptr inbounds nuw i8, ptr %1, i64 8
  %.sroa.0.0.copyload.i = load i64, ptr %5, align 8
  %6 = and i64 %.sroa.0.0.copyload.i, -16
  %7 = inttoptr i64 %6 to ptr
  %8 = load ptr, ptr %7, align 16
  %9 = getelementptr inbounds nuw i8, ptr %8, i64 8
  %.sroa.0.0.copyload.i.i.i.i = load i64, ptr %9, align 8
  %10 = and i64 %.sroa.0.0.copyload.i.i.i.i, -16
  %11 = inttoptr i64 %10 to ptr
  %12 = load ptr, ptr %11, align 16
  %13 = getelementptr inbounds nuw i8, ptr %12, i64 16
  %14 = load i8, ptr %13, align 16
  %15 = add i8 %14, -25
  %spec.select.i.i.i.i.i.i.i.i.i = icmp ult i8 %15, 2
  br i1 %spec.select.i.i.i.i.i.i.i.i.i, label %.critedge, label %16

16:                                               ; preds = %4
  %17 = tail call i64 @_ZN5clang4Sema36DefaultFunctionArrayLvalueConversionEPNS_4ExprEb(ptr noundef nonnull align 8 dereferenceable(17560) %0, ptr noundef nonnull %1, i1 noundef zeroext true) #17
  br label %19

.critedge:                                        ; preds = %3, %4
  %18 = tail call i64 @_ZN5clang4Sema20CheckPlaceholderExprEPNS_4ExprE(ptr noundef nonnull align 8 dereferenceable(17560) %0, ptr noundef %1) #17
  br label %19

19:                                               ; preds = %.critedge, %16
  %.sroa.0.0 = phi i64 [ %17, %16 ], [ %18, %.critedge ]
  ret i64 %.sroa.0.0
}